; Function Attrs: mustprogress nofree norecurse nosync nounwind willreturn memory(read, inaccessiblemem: none) uwtable
define hidden noundef float @_ZN2cv6detail8tracking15online_boosting8Detector24getConfidenceOfDetectionEi(ptr noundef nonnull readonly align 8 captures(none) dereferenceable(376) %0, i32 noundef %1) local_unnamed_addr #12 align 2 {
  %3 = getelementptr inbounds nuw i8, ptr %0, i64 16
  %4 = getelementptr inbounds nuw i8, ptr %0, i64 48
  %5 = sext i32 %1 to i64
  %6 = load ptr, ptr %4, align 8, !tbaa !108
  %7 = getelementptr inbounds nuw i32, ptr %6, i64 %5
  %8 = load i32, ptr %7, align 4, !tbaa !40
  %9 = sext i32 %8 to i64
  %10 = load ptr, ptr %3, align 8, !tbaa !38
  %11 = getelementptr inbounds nuw float, ptr %10, i64 %9
  %12 = load float, ptr %11, align 4, !tbaa !34
  ret float %12
}